ccollections
OrderedDict
p1
((lp2
(lp3
V 
aI1
aa(lp4
Ve
aI2
aa(lp5
Va
aI3
aa(lp6
Vr
aI4
aa(lp7
Vt
aI5
aa(lp8
Vn
aI6
aa(lp9
Vi
aI7
aa(lp10
Vo
aI8
aa(lp11
Vs
aI9
aa(lp12
Vc
aI10
aa(lp13
Vl
aI11
aa(lp14
Vd
aI12
aa(lp15
Vm
aI13
aa(lp16
Vu
aI14
aa(lp17
Vg
aI15
aa(lp18
Vp
aI16
aa(lp19
Vh
aI17
aa(lp20
VE
aI18
aa(lp21
Vy
aI19
aa(lp22
Vf
aI20
aa(lp23
VN
aI21
aa(lp24
Vb
aI22
aa(lp25
Vw
aI23
aa(lp26
Vv
aI24
aa(lp27
VS
aI25
aa(lp28
VR
aI26
aa(lp29
VC
aI27
aa(lp30
VM
aI28
aa(lp31
VA
aI29
aa(lp32
V_
aI30
aa(lp33
Vk
aI31
aa(lp34
V0
aI32
aa(lp35
Vx
aI33
aa(lp36
Vj
aI34
aa(lp37
V,
aI35
aa(lp38
V1
aI36
aa(lp39
Vz
aI37
aa(lp40
V8
aI38
aa(lp41
Vq
aI39
aa(lp42
V2
aI40
aa(lp43
V3
aI41
aa(lp44
V4
aI42
aa(lp45
V-
aI43
aa(lp46
V7
aI44
aa(lp47
V5
aI45
aa(lp48
V9
aI46
aa(lp49
V:
aI47
aa(lp50
V'
aI48
aa(lp51
V~
aI49
aa(lp52
V&
aI50
aa(lp53
V/
aI51
aa(lp54
V\u2019
aI52
aa(lp55
V;
aI53
aa(lp56
V6
aI54
aa(lp57
V\u2014
aI55
aa(lp58
V#
aI56
aa(lp59
V"
aI57
aa(lp60
V.
aI58
aa(lp61
V@
aI59
aa(lp62
V\u0650
aI60
aa(lp63
V\u200b
aI61
aatRp64
.ccollections
OrderedDict
p1
((lp2
(lp3
Vj
aI230
aa(lp4
Vo
aI7185
aa(lp5
Vn
aI8216
aa(lp6
Ve
aI12767
aa(lp7
Vs
aI5599
aa(lp8
V 
aI14526
aa(lp9
Vg
aI2966
aa(lp10
Vr
aI9039
aa(lp11
Vt
aI8512
aa(lp12
Vi
aI8164
aa(lp13
Vc
aI5043
aa(lp14
Vw
aI1184
aa(lp15
Vd
aI3894
aa(lp16
VS
aI848
aa(lp17
VC
aI847
aa(lp18
VR
aI847
aa(lp19
VE
aI2540
aa(lp20
VN
aI1693
aa(lp21
V_
aI846
aa(lp22
VA
aI846
aa(lp23
VM
aI846
aa(lp24
Va
aI9663
aa(lp25
Vl
aI4943
aa(lp26
Vy
aI2196
aa(lp27
Vb
aI1326
aa(lp28
Vm
aI3647
aa(lp29
Vh
aI2743
aa(lp30
Vu
aI3011
aa(lp31
Vp
aI2941
aa(lp32
Vk
aI830
aa(lp33
Vz
aI97
aa(lp34
Vv
aI1181
aa(lp35
V4
aI42
aa(lp36
V1
aI144
aa(lp37
V2
aI57
aa(lp38
Vf
aI1757
aa(lp39
V-
aI32
aa(lp40
Vq
aI79
aa(lp41
V5
aI23
aa(lp42
V0
aI553
aa(lp43
V,
aI145
aa(lp44
V\u0650
aI1
aa(lp45
Vx
aI464
aa(lp46
V7
aI28
aa(lp47
V&
aI8
aa(lp48
V;
aI6
aa(lp49
V'
aI10
aa(lp50
V/
aI6
aa(lp51
V3
aI42
aa(lp52
V8
aI97
aa(lp53
V:
aI14
aa(lp54
V6
aI5
aa(lp55
V.
aI2
aa(lp56
V@
aI1
aa(lp57
V9
aI15
aa(lp58
V~
aI8
aa(lp59
V\u2019
aI6
aa(lp60
V\u2014
aI4
aa(lp61
V#
aI2
aa(lp62
V"
aI2
aa(lp63
V\u200b
aI1
aatRp64
.