ccollections
OrderedDict
p1
((lp2
(lp3
VNetNeutrality
p4
aI1
aa(lp5
VDreamActNow
p6
aI2
aa(lp7
VGOPTaxScam
p8
aI3
aa(lp9
VDreamers
p10
aI4
aa(lp11
VGetCovered
p12
aI5
aa(lp13
VAmericanDreamer
p14
aI6
aa(lp15
VCHIP
p16
aI7
aa(lp17
VTaxReform
p18
aI8
aa(lp19
Vtaxreform
p20
aI9
aa(lp21
VSandyHook
p22
aI10
aa(lp23
VDACA
p24
aI11
aa(lp25
VHanukkah
p26
aI12
aa(lp27
VGOPTaxPlan
p28
aI13
aa(lp29
VRightSideOfHistory
p30
aI14
aa(lp31
VNDAA
p32
aI15
aa(lp33
VGOPTaxBill
p34
aI16
aa(lp35
VKitchenTableIssues
p36
aI17
aa(lp37
VCourtsMatter
p38
aI18
aa(lp39
VDreamAct
p40
aI19
aa(lp41
VSaveNetNeutrality
p42
aI20
aa(lp43
VGOTV4Doug
p44
aI21
aa(lp45
VOhio
p46
aI22
aa(lp47
Vutpol
p48
aI23
aa(lp49
Valpolitics
p50
aI24
aa(lp51
VALSEN
p52
aI25
aa(lp53
VHonorWithAction
p54
aI26
aa(lp55
VThomasFire
p56
aI27
aa(lp57
VSESTA
p58
aI28
aa(lp59
Vjobs
p60
aI29
aa(lp61
VBadForWomen
p62
aI30
aa(lp63
VHappyHanukkah
p64
aI31
aa(lp65
VNAFTA
p66
aI32
aa(lp67
VExtendCHIP
p68
aI33
aa(lp69
VArcticRefuge
p70
aI34
aa(lp71
VTaxreform
p72
aI35
aa(lp73
VGOTV
p74
aI36
aa(lp75
VProtectTheArctic
p76
aI37
aa(lp77
VDREAMers
p78
aI38
aa(lp79
VNM
p80
aI39
aa(lp81
VWV
p82
aI40
aa(lp83
Vnetneutrality
p84
aI41
aa(lp85
Vmtpol
p86
aI42
aa(lp87
VFY18NDAA
p88
aI43
aa(lp89
VALSen
p90
aI44
aa(lp91
VSenate
p92
aI45
aa(lp93
VOneWeek
p94
aI46
aa(lp95
VNV
p96
aI47
aa(lp97
VOpenEnrollment
p98
aI48
aa(lp99
VFundCHIPNow
p100
aI49
aa(lp101
VTaxCutsandJobsAct
p102
aI50
aa(lp103
VACA
p104
aI51
aa(lp105
VLAFires
p106
aI52
aa(lp107
VProtectDreamers
p108
aI53
aa(lp109
VAmericanDREAMer
p110
aI54
aa(lp111
Vhealthcare
p112
aI55
aa(lp113
VAlSen
p114
aI56
aa(lp115
Vagriculture
p116
aI57
aa(lp117
Vmiddleclass
p118
aI58
aa(lp119
VDreamer
p120
aI59
aa(lp121
VCharlesBarkley
p122
aI60
aa(lp123
VGuard381
p124
aI61
aa(lp125
VProudNebraskan
p126
aI62
aa(lp127
VRenewCHIP
p128
aI63
aa(lp129
VGetCoveredNow
p130
aI64
aa(lp131
VDREAMActNow
p132
aI65
aa(lp133
VBadforWomen
p134
aI66
aa(lp135
VDourson
p136
aI67
aa(lp137
VHR4519
p138
aI68
aa(lp139
VNewBritain
p140
aI69
aa(lp141
VNewtown
p142
aI70
aa(lp143
VCharlestonShooting
p144
aI71
aa(lp145
Vtaxrelief
p146
aI72
aa(lp147
VCardinLugar
p148
aI73
aa(lp149
VRollTide
p150
aI74
aa(lp151
VArkansas
p152
aI75
aa(lp153
VThisIsWV
p154
aI76
aa(lp155
VSASC
p156
aI77
aa(lp157
VTaxBill
p158
aI78
aa(lp159
VMTPDaily
p160
aI79
aa(lp161
Vopioidcrisis
p162
aI80
aa(lp163
VICYMI
p164
aI81
aa(lp165
V1October
p166
aI82
aa(lp167
VIfItsSunday
p168
aI83
aa(lp169
VPACTAct
p170
aI84
aa(lp171
VChildTaxCredit
p172
aI85
aa(lp173
VLIHTC
p174
aI86
aa(lp175
Vcourtsmatter
p176
aI87
aa(lp177
VGOP4Jones
p178
aI88
aa(lp179
VNevada
p180
aI89
aa(lp181
VGirlPower
p182
aI90
aa(lp183
VOpioidEpidemic
p184
aI91
aa(lp185
VUkraine
p186
aI92
aa(lp187
VShowMeTownHalls
p188
aI93
aa(lp189
VEndHumanTrafficking
p190
aI94
aa(lp191
VTuneIn
p192
aI95
aa(lp193
VMTP
p194
aI96
aa(lp195
VAlwaysReadyAlwaysThere
p196
aI97
aa(lp197
VWAA2017
p198
aI98
aa(lp199
VCures
p200
aI99
aa(lp201
VJusticeForJosh
p202
aI100
aa(lp203
VCincinnati
p204
aI101
aa(lp205
VWithEachOtherForEachOther
p206
aI102
aa(lp207
Valsen
p208
aI103
aa(lp209
VCostofCare17
p210
aI104
aa(lp211
VDREAMAct
p212
aI105
aa(lp213
Vdigitaldivide
p214
aI106
aa(lp215
Vgetcovered
p216
aI107
aa(lp217
VBREAKING
p218
aI108
aa(lp219
Vmepolitics
p220
aI109
aa(lp221
VSecretSanta
p222
aI110
aa(lp223
VParisAgreement
p224
aI111
aa(lp225
Vsmallbiz
p226
aI112
aa(lp227
VSenateFloor
p228
aI113
aa(lp229
VNEag
p230
aI114
aa(lp231
VFlorida
p232
aI115
aa(lp233
VHumanRights
p234
aI116
aa(lp235
VTX
p236
aI117
aa(lp237
VToysforTots
p238
aI118
aa(lp239
VMagicCityClassic2017
p240
aI119
aa(lp241
VEndGunViolence
p242
aI120
aa(lp243
VProtectNetNeutrality
p244
aI121
aa(lp245
VNEheroes
p246
aI122
aa(lp247
VBAMAvsOLEMISS
p248
aI123
aa(lp249
VBidenJonesLive
p250
aI124
aa(lp251
VNetneutrality
p252
aI125
aa(lp253
VRockHall2018
p254
aI126
aa(lp255
VHereToStay
p256
aI127
aa(lp257
VChina
p258
aI128
aa(lp259
Vhumantrafficking
p260
aI129
aa(lp261
VALSenate
p262
aI130
aa(lp263
VAMA
p264
aI131
aa(lp265
VDefendDACA
p266
aI132
aa(lp267
VGoBlazers
p268
aI133
aa(lp269
Vopioidepidemic
p270
aI134
aa(lp271
VNEstakeholders
p272
aI135
aa(lp273
Vaffordablehousing
p274
aI136
aa(lp275
VCDC7words
p276
aI137
aa(lp277
Vgapol
p278
aI138
aa(lp279
VFortBragg
p280
aI139
aa(lp281
VDougJonesForSenate
p282
aI140
aa(lp283
VMGTAct
p284
aI141
aa(lp285
VMGTact
p286
aI142
aa(lp287
Vbroadband
p288
aI143
aa(lp289
VextendCHIP
p290
aI144
aa(lp291
VVoteDec12
p292
aI145
aa(lp293
VAI
p294
aI146
aa(lp295
Vstillin
p296
aI147
aa(lp297
VDrugFreeWV
p298
aI148
aa(lp299
VStartupAct
p300
aI149
aa(lp301
Vrightsideofhistory
p302
aI150
aa(lp303
VFeedTheWorld
p304
aI151
aa(lp305
VIoT
p306
aI152
aa(lp307
VNATO
p308
aI153
aa(lp309
VDougJones
p310
aI154
aa(lp311
VCNNHeroes
p312
aI155
aa(lp313
VUAB
p314
aI156
aa(lp315
VMEAC
p316
aI157
aa(lp317
Vmilitary
p318
aI158
aa(lp319
Vbipartisanship
p320
aI159
aa(lp321
VWarEagle
p322
aI160
aa(lp323
VCapitoConnect
p324
aI161
aa(lp325
VAlzheimer
p326
aI162
aa(lp327
VALComeTogether
p328
aI163
aa(lp329
VRIPjimmie
p330
aI164
aa(lp331
VweareChalreston
p332
aI165
aa(lp333
VMooreForHimself
p334
aI166
aa(lp335
VTheRightSideOfHistory
p336
aI167
aa(lp337
VHurricaneNate
p338
aI168
aa(lp339
VNationalVoterRegistrationDay
p340
aI169
aa(lp341
VTakeAKnee
p342
aI170
aa(lp343
VInvictusGames2017
p344
aI171
aa(lp345
VWePersist
p346
aI172
aa(lp347
Vrestorethevote
p348
aI173
aa(lp349
VCBCALC2017
p350
aI174
aa(lp351
VDougJonesforSenate
p352
aI175
aa(lp353
VWeRemember
p354
aI176
aa(lp355
VHappyBirthdayMarines
p356
aI177
aa(lp357
VBeatLSU
p358
aI178
aa(lp359
Vshepersisted
p360
aI179
aa(lp361
VMagicCityClassic
p362
aI180
aa(lp363
VSad
p364
aI181
aa(lp365
VGDA
p366
aI182
aa(lp367
Vgunbuyback
p368
aI183
aa(lp369
Vdougjones4senate
p370
aI184
aa(lp371
VTheBrianKilmeadeShow
p372
aI185
aa(lp373
VDRC
p374
aI186
aa(lp375
VJerseyProud
p376
aI187
aa(lp377
VBroadband
p378
aI188
aa(lp379
VPaidFamilyLeave
p380
aI189
aa(lp381
VGirlsBuildLA
p382
aI190
aa(lp383
VSpecialReport
p384
aI191
aa(lp385
VUSApoverty
p386
aI192
aa(lp387
VVolleyball
p388
aI193
aa(lp389
VGBR
p390
aI194
aa(lp391
VWednesdayWisdom
p392
aI195
aa(lp393
VIronBowl\u0650
p394
aI196
aa(lp395
Vtax
p396
aI197
aa(lp397
VNationalChamps
p398
aI198
aa(lp399
VMondayMotivation
p400
aI199
aa(lp401
VClimateChange
p402
aI200
aa(lp403
VEnrollYoSelf
p404
aI201
aa(lp405
VNoMoore
p406
aI202
aa(lp407
VNorthKorea
p408
aI203
aa(lp409
Vmonopsony
p410
aI204
aa(lp411
VAMR
p412
aI205
aa(lp413
Vinners
p414
aI206
aa(lp415
ViMarch
p416
aI207
aa(lp417
VWVians
p418
aI208
aa(lp419
VArtificialintelligence
p420
aI209
aa(lp421
VCleanEnergy
p422
aI210
aa(lp423
VEntrepreneurs
p424
aI211
aa(lp425
VCaringforOurVeteransAct
p426
aI212
aa(lp427
VWeAreGuard
p428
aI213
aa(lp429
VAZ
p430
aI214
aa(lp431
VGrinchBots
p432
aI215
aa(lp433
VBPCLive
p434
aI216
aa(lp435
VPEPFAR
p436
aI217
aa(lp437
Vchemicalsafety
p438
aI218
aa(lp439
VSFRC
p440
aI219
aa(lp441
VDACAworks
p442
aI220
aa(lp443
VDream
p444
aI221
aa(lp445
VHolidayMail
p446
aI222
aa(lp447
VTackleTheGenderGap
p448
aI223
aa(lp449
Vtbt
p450
aI224
aa(lp451
VWomenInBiz
p452
aI225
aa(lp453
VTaxScamBill
p454
aI226
aa(lp455
VHEA
p456
aI227
aa(lp457
Vhighered
p458
aI228
aa(lp459
VOregonWay
p460
aI229
aa(lp461
V2017TownHalls
p462
aI230
aa(lp463
VRonReport
p464
aI231
aa(lp465
VStandWithDreamers
p466
aI232
aa(lp467
Vopioid
p468
aI233
aa(lp469
VSemperFi
p470
aI234
aa(lp471
VWranglerNFR
p472
aI235
aa(lp473
VIran
p474
aI236
aa(lp475
VPWBM
p476
aI237
aa(lp477
VArcticRider
p478
aI238
aa(lp479
Vendhumantrafficking
p480
aI239
aa(lp481
VRuralNE
p482
aI240
aa(lp483
VSundayMorning
p484
aI241
aa(lp485
VSunshineWeek
p486
aI242
aa(lp487
VUSSLittleRock
p488
aI243
aa(lp489
VGOPtaxscam
p490
aI244
aa(lp491
VConstitution
p492
aI245
aa(lp493
VBillofRights
p494
aI246
aa(lp495
VCommonSense
p496
aI247
aa(lp497
VAmericanDreamers
p498
aI248
aa(lp499
VSALT
p500
aI249
aa(lp501
VWrongPriorities
p502
aI250
aa(lp503
VCanada
p504
aI251
aa(lp505
VHolocaust
p506
aI252
aa(lp507
VMiddleClass
p508
aI253
aa(lp509
VRussia
p510
aI254
aa(lp511
VNORAD
p512
aI255
aa(lp513
VSanta
p514
aI256
aa(lp515
VSTOPunderrides
p516
aI257
aa(lp517
VSamanthaBee
p518
aI258
aa(lp519
VMarcoRubio
p520
aI259
aa(lp521
VMeToo
p522
aI260
aa(lp523
VHurricaneIrma
p524
aI261
aa(lp525
VUnitedStates
p526
aI262
aa(lp527
VRomania
p528
aI263
aa(lp529
VHappyHolidays
p530
aI264
aa(lp531
VEITI
p532
aI265
aa(lp533
Vcorruption
p534
aI266
aa(lp535
VGrandStaircase
p536
aI267
aa(lp537
VForksUp
p538
aI268
aa(lp539
VGoJacks
p540
aI269
aa(lp541
VTaxCutsAndJobsAct
p542
aI270
aa(lp543
VBillofRightsDay
p544
aI271
aa(lp545
Vcleanenergy
p546
aI272
aa(lp547
Vcoal
p548
aI273
aa(lp549
VWTPIndiana
p550
aI274
aa(lp551
VAUMF
p552
aI275
aa(lp553
VHuskers
p554
aI276
aa(lp555
VTribalConnect
p556
aI277
aa(lp557
VDigitalDivide
p558
aI278
aa(lp559
VBearsEars
p560
aI279
aa(lp561
VFarmBill18
p562
aI280
aa(lp563
VPublicLand
p564
aI281
aa(lp565
VDomesticViolenceLoophole
p566
aI282
aa(lp567
VIndianaStatehoodDay
p568
aI283
aa(lp569
VCuster
p570
aI284
aa(lp571
VWithDreamers
p572
aI285
aa(lp573
VsnowDE
p574
aI286
aa(lp575
VLastJedi
p576
aI287
aa(lp577
VService
p578
aI288
aa(lp579
VPatriotRiders
p580
aI289
aa(lp581
Vfarming
p582
aI290
aa(lp583
VTSCA
p584
aI291
aa(lp585
Vheroes
p586
aI292
aa(lp587
VArmyNavyGame
p588
aI293
aa(lp589
VChildCare4All
p590
aI294
aa(lp591
Vclimatechange
p592
aI295
aa(lp593
Vtrade
p594
aI296
aa(lp595
VNORADTracksSanta
p596
aI297
aa(lp597
Vfailing
p598
aI298
aa(lp599
VHealthcare
p600
aI299
aa(lp601
VMO
p602
aI300
aa(lp603
VFCC
p604
aI301
aa(lp605
Vgunviolence
p606
aI302
aa(lp607
VAlabamaSenateElection
p608
aI303
aa(lp609
VGOPShouldBeAshamed
p610
aI304
aa(lp611
VScroogeWouldBeProud
p612
aI305
aa(lp613
VSkirballFire
p614
aI306
aa(lp615
VRyeFire
p616
aI307
aa(lp617
VCreekFire
p618
aI308
aa(lp619
Vfire
p620
aI309
aa(lp621
VMerryChristmas
p622
aI310
aa(lp623
VNarragansett
p624
aI311
aa(lp625
VVentura
p626
aI312
aa(lp627
VSantaBarbaraCounty
p628
aI313
aa(lp629
VVeteransHistoryProject
p630
aI314
aa(lp631
VRedFlagWarnings
p632
aI315
aa(lp633
VNetNeutralty
p634
aI316
aa(lp635
Venergy
p636
aI317
aa(lp637
VSyria
p638
aI318
aa(lp639
Vinternet
p640
aI319
aatRp641
.ccollections
OrderedDict
p1
((lp2
(lp3
VGOTV
p4
aI9
aa(lp5
VGOTV4Doug
p6
aI15
aa(lp7
VVoteDec12
p8
aI1
aa(lp9
VCharlesBarkley
p10
aI4
aa(lp11
VRightSideOfHistory
p12
aI18
aa(lp13
Vrightsideofhistory
p14
aI1
aa(lp15
VDougJones
p16
aI1
aa(lp17
VDougJonesForSenate
p18
aI1
aa(lp19
VUAB
p20
aI1
aa(lp21
VGoBlazers
p22
aI1
aa(lp23
Valpolitics
p24
aI12
aa(lp25
Valsen
p26
aI2
aa(lp27
VTuneIn
p28
aI2
aa(lp29
Vtax
p30
aI1
aa(lp31
VOneWeek
p32
aI6
aa(lp33
VNoMoore
p34
aI1
aa(lp35
VKitchenTableIssues
p36
aI16
aa(lp37
VGOP4Jones
p38
aI2
aa(lp39
VALSen
p40
aI6
aa(lp41
VAlSen
p42
aI4
aa(lp43
VALComeTogether
p44
aI1
aa(lp45
VRollTide
p46
aI3
aa(lp47
VWarEagle
p48
aI1
aa(lp49
VALSEN
p50
aI12
aa(lp51
VIronBowl\u0650
p52
aI1
aa(lp53
VNetNeutrality
p54
aI95
aa(lp55
VGDA
p56
aI1
aa(lp57
VSad
p58
aI1
aa(lp59
VMagicCityClassic
p60
aI1
aa(lp61
VMagicCityClassic2017
p62
aI2
aa(lp63
VCHIP
p64
aI29
aa(lp65
VBeatLSU
p66
aI1
aa(lp67
VHappyBirthdayMarines
p68
aI1
aa(lp69
VWeRemember
p70
aI1
aa(lp71
VDougJonesforSenate
p72
aI1
aa(lp73
VCBCALC2017
p74
aI1
aa(lp75
Vrestorethevote
p76
aI1
aa(lp77
VWePersist
p78
aI1
aa(lp79
VInvictusGames2017
p80
aI1
aa(lp81
VTakeAKnee
p82
aI1
aa(lp83
VNationalVoterRegistrationDay
p84
aI1
aa(lp85
VBAMAvsOLEMISS
p86
aI2
aa(lp87
VBidenJonesLive
p88
aI2
aa(lp89
VHurricaneNate
p90
aI1
aa(lp91
VTheRightSideOfHistory
p92
aI1
aa(lp93
VMooreForHimself
p94
aI1
aa(lp95
VALSenate
p96
aI2
aa(lp97
VweareChalreston
p98
aI1
aa(lp99
VCharlestonShooting
p100
aI3
aa(lp101
VRIPjimmie
p102
aI1
aa(lp103
Vdougjones4senate
p104
aI1
aa(lp105
VTheBrianKilmeadeShow
p106
aI1
aa(lp107
VDRC
p108
aI1
aa(lp109
VGetCovered
p110
aI44
aa(lp111
ViMarch
p112
aI1
aa(lp113
Vinners
p114
aI1
aa(lp115
VAMR
p116
aI1
aa(lp117
Vmonopsony
p118
aI1
aa(lp119
VNorthKorea
p120
aI1
aa(lp121
VEnrollYoSelf
p122
aI1
aa(lp123
VClimateChange
p124
aI1
aa(lp125
VMondayMotivation
p126
aI1
aa(lp127
VJerseyProud
p128
aI1
aa(lp129
Vutpol
p130
aI13
aa(lp131
VHappyHanukkah
p132
aI10
aa(lp133
VWednesdayWisdom
p134
aI1
aa(lp135
VTaxReform
p136
aI27
aa(lp137
Vtaxreform
p138
aI26
aa(lp139
VUSApoverty
p140
aI1
aa(lp141
VJusticeForJosh
p142
aI2
aa(lp143
VSpecialReport
p144
aI1
aa(lp145
VGirlsBuildLA
p146
aI1
aa(lp147
VTaxCutsandJobsAct
p148
aI5
aa(lp149
VGOPTaxScam
p150
aI88
aa(lp151
VBroadband
p152
aI1
aa(lp153
Vdigitaldivide
p154
aI2
aa(lp155
VAlzheimer
p156
aI1
aa(lp157
VCapitoConnect
p158
aI1
aa(lp159
VNDAA
p160
aI17
aa(lp161
VMGTact
p162
aI1
aa(lp163
VMGTAct
p164
aI1
aa(lp165
VHanukkah
p166
aI21
aa(lp167
Vopioidepidemic
p168
aI1
aa(lp169
VWV
p170
aI8
aa(lp171
VextendCHIP
p172
aI1
aa(lp173
VAlwaysReadyAlwaysThere
p174
aI2
aa(lp175
VGuard381
p176
aI4
aa(lp177
VTaxreform
p178
aI9
aa(lp179
Vmilitary
p180
aI1
aa(lp181
VSASC
p182
aI2
aa(lp183
VChildTaxCredit
p184
aI2
aa(lp185
VStartupAct
p186
aI1
aa(lp187
VDreamers
p188
aI64
aa(lp189
VSecretSanta
p190
aI2
aa(lp191
VFortBragg
p192
aI1
aa(lp193
VGOPTaxBill
p194
aI17
aa(lp195
Vbipartisanship
p196
aI1
aa(lp197
Vbroadband
p198
aI1
aa(lp199
VDrugFreeWV
p200
aI1
aa(lp201
VMEAC
p202
aI1
aa(lp203
VCDC7words
p204
aI1
aa(lp205
VCNNHeroes
p206
aI1
aa(lp207
VOpenEnrollment
p208
aI6
aa(lp209
VSaveNetNeutrality
p210
aI15
aa(lp211
VParisAgreement
p212
aI2
aa(lp213
Vstillin
p214
aI1
aa(lp215
VRenewCHIP
p216
aI3
aa(lp217
VDreamActNow
p218
aI90
aa(lp219
VProtectDreamers
p220
aI5
aa(lp221
VNM
p222
aI8
aa(lp223
VCleanEnergy
p224
aI1
aa(lp225
VProtectTheArctic
p226
aI8
aa(lp227
VAmericanDreamer
p228
aI34
aa(lp229
VDREAMers
p230
aI8
aa(lp231
VDourson
p232
aI3
aa(lp233
VTSCA
p234
aI1
aa(lp235
VHonorWithAction
p236
aI12
aa(lp237
VEndGunViolence
p238
aI2
aa(lp239
VSandyHook
p240
aI23
aa(lp241
VNewtown
p242
aI3
aa(lp243
VArcticRefuge
p244
aI9
aa(lp245
VExtendCHIP
p246
aI9
aa(lp247
VFundCHIPNow
p248
aI6
aa(lp249
VDACA
p250
aI23
aa(lp251
VLastJedi
p252
aI1
aa(lp253
VsnowDE
p254
aI1
aa(lp255
VWithDreamers
p256
aI1
aa(lp257
VCuster
p258
aI1
aa(lp259
VIndianaStatehoodDay
p260
aI1
aa(lp261
VDomesticViolenceLoophole
p262
aI1
aa(lp263
VPublicLand
p264
aI1
aa(lp265
VBearsEars
p266
aI1
aa(lp267
VGrandStaircase
p268
aI1
aa(lp269
Vtaxrelief
p270
aI3
aa(lp271
VDigitalDivide
p272
aI1
aa(lp273
VTribalConnect
p274
aI1
aa(lp275
VBadForWomen
p276
aI10
aa(lp277
Vcourtsmatter
p278
aI2
aa(lp279
VAUMF
p280
aI1
aa(lp281
VWTPIndiana
p282
aI1
aa(lp283
Vcoal
p284
aI1
aa(lp285
VArtificialintelligence
p286
aI1
aa(lp287
VICYMI
p288
aI2
aa(lp289
Vnetneutrality
p290
aI7
aa(lp291
VMTPDaily
p292
aI2
aa(lp293
VPACTAct
p294
aI2
aa(lp295
VBillofRightsDay
p296
aI1
aa(lp297
VTaxCutsAndJobsAct
p298
aI1
aa(lp299
VGoJacks
p300
aI1
aa(lp301
VWAA2017
p302
aI2
aa(lp303
VForksUp
p304
aI1
aa(lp305
VDreamAct
p306
aI15
aa(lp307
VArmyNavyGame
p308
aI1
aa(lp309
VFY18NDAA
p310
aI7
aa(lp311
VChildCare4All
p312
aI1
aa(lp313
VCostofCare17
p314
aI2
aa(lp315
VDREAMAct
p316
aI2
aa(lp317
VThomasFire
p318
aI12
aa(lp319
VSyria
p320
aI1
aa(lp321
VGOPTaxPlan
p322
aI18
aa(lp323
VNetneutrality
p324
aI2
aa(lp325
VNetNeutralty
p326
aI1
aa(lp327
VRedFlagWarnings
p328
aI1
aa(lp329
VBREAKING
p330
aI2
aa(lp331
VLAFires
p332
aI5
aa(lp333
VCourtsMatter
p334
aI16
aa(lp335
VSantaBarbaraCounty
p336
aI1
aa(lp337
VVentura
p338
aI1
aa(lp339
VNarragansett
p340
aI1
aa(lp341
VSESTA
p342
aI12
aa(lp343
Vfire
p344
aI1
aa(lp345
VBadforWomen
p346
aI3
aa(lp347
VCreekFire
p348
aI1
aa(lp349
VRyeFire
p350
aI1
aa(lp351
VSkirballFire
p352
aI1
aa(lp353
VCures
p354
aI2
aa(lp355
VScroogeWouldBeProud
p356
aI1
aa(lp357
VGOPShouldBeAshamed
p358
aI1
aa(lp359
VAlabamaSenateElection
p360
aI1
aa(lp361
Vgunviolence
p362
aI1
aa(lp363
VFCC
p364
aI1
aa(lp365
VGetCoveredNow
p366
aI3
aa(lp367
VShowMeTownHalls
p368
aI2
aa(lp369
VAmericanDREAMer
p370
aI5
aa(lp371
VDreamer
p372
aI4
aa(lp373
VMO
p374
aI1
aa(lp375
VTaxBill
p376
aI2
aa(lp377
VHealthcare
p378
aI1
aa(lp379
Vfailing
p380
aI1
aa(lp381
VSenate
p382
aI6
aa(lp383
VDREAMActNow
p384
aI3
aa(lp385
VNAFTA
p386
aI10
aa(lp387
V1October
p388
aI2
aa(lp389
Vtrade
p390
aI1
aa(lp391
Vagriculture
p392
aI4
aa(lp393
VFarmBill18
p394
aI1
aa(lp395
VCardinLugar
p396
aI3
aa(lp397
Vcorruption
p398
aI1
aa(lp399
VEITI
p400
aI1
aa(lp401
VHR4519
p402
aI3
aa(lp403
VNevada
p404
aI2
aa(lp405
VHappyHolidays
p406
aI1
aa(lp407
VWranglerNFR
p408
aI1
aa(lp409
VSemperFi
p410
aI1
aa(lp411
Vopioid
p412
aI1
aa(lp413
VOpioidEpidemic
p414
aI2
aa(lp415
Vhealthcare
p416
aI4
aa(lp417
VACA
p418
aI5
aa(lp419
VStandWithDreamers
p420
aI1
aa(lp421
VRonReport
p422
aI1
aa(lp423
VNV
p424
aI6
aa(lp425
Vhumantrafficking
p426
aI2
aa(lp427
V2017TownHalls
p428
aI1
aa(lp429
VOregonWay
p430
aI1
aa(lp431
VAMA
p432
aI2
aa(lp433
Vhighered
p434
aI1
aa(lp435
VHEA
p436
aI1
aa(lp437
VHereToStay
p438
aI2
aa(lp439
VRockHall2018
p440
aI2
aa(lp441
VTaxScamBill
p442
aI1
aa(lp443
Vsmallbiz
p444
aI2
aa(lp445
VWomenInBiz
p446
aI1
aa(lp447
VTackleTheGenderGap
p448
aI1
aa(lp449
VEntrepreneurs
p450
aI1
aa(lp451
VHolidayMail
p452
aI1
aa(lp453
VDream
p454
aI1
aa(lp455
VDACAworks
p456
aI1
aa(lp457
VSFRC
p458
aI1
aa(lp459
Vchemicalsafety
p460
aI1
aa(lp461
VProtectNetNeutrality
p462
aI2
aa(lp463
VPEPFAR
p464
aI1
aa(lp465
VBPCLive
p466
aI1
aa(lp467
VGrinchBots
p468
aI1
aa(lp469
VAZ
p470
aI1
aa(lp471
VWeAreGuard
p472
aI1
aa(lp473
VCaringforOurVeteransAct
p474
aI1
aa(lp475
VToysforTots
p476
aI2
aa(lp477
VIran
p478
aI1
aa(lp479
Vtbt
p480
aI1
aa(lp481
VTX
p482
aI2
aa(lp483
VHumanRights
p484
aI2
aa(lp485
VFlorida
p486
aI2
aa(lp487
VPWBM
p488
aI1
aa(lp489
VHolocaust
p490
aI1
aa(lp491
VRomania
p492
aI1
aa(lp493
VUnitedStates
p494
aI1
aa(lp495
VHurricaneIrma
p496
aI1
aa(lp497
VChina
p498
aI2
aa(lp499
VMeToo
p500
aI1
aa(lp501
VMarcoRubio
p502
aI1
aa(lp503
Vmepolitics
p504
aI2
aa(lp505
VSamanthaBee
p506
aI1
aa(lp507
VSTOPunderrides
p508
aI1
aa(lp509
Vjobs
p510
aI11
aa(lp511
VOhio
p512
aI13
aa(lp513
VUkraine
p514
aI2
aa(lp515
VRussia
p516
aI1
aa(lp517
Vmiddleclass
p518
aI4
aa(lp519
Vopioidcrisis
p520
aI2
aa(lp521
VEndHumanTrafficking
p522
aI2
aa(lp523
VMiddleClass
p524
aI1
aa(lp525
VCanada
p526
aI1
aa(lp527
Vendhumantrafficking
p528
aI1
aa(lp529
VCincinnati
p530
aI2
aa(lp531
VWrongPriorities
p532
aI1
aa(lp533
Vgetcovered
p534
aI2
aa(lp535
Vmtpol
p536
aI7
aa(lp537
VSALT
p538
aI1
aa(lp539
VAmericanDreamers
p540
aI1
aa(lp541
VArkansas
p542
aI3
aa(lp543
VCommonSense
p544
aI1
aa(lp545
VBillofRights
p546
aI1
aa(lp547
VConstitution
p548
aI1
aa(lp549
VGOPtaxscam
p550
aI1
aa(lp551
VUSSLittleRock
p552
aI1
aa(lp553
VSunshineWeek
p554
aI1
aa(lp555
VSundayMorning
p556
aI1
aa(lp557
VThisIsWV
p558
aI3
aa(lp559
VRuralNE
p560
aI1
aa(lp561
VNEag
p562
aI2
aa(lp563
VSenateFloor
p564
aI2
aa(lp565
Vcleanenergy
p566
aI1
aa(lp567
VWVians
p568
aI1
aa(lp569
VNORAD
p570
aI1
aa(lp571
VSanta
p572
aI1
aa(lp573
VNORADTracksSanta
p574
aI1
aa(lp575
VMerryChristmas
p576
aI1
aa(lp577
VVeteransHistoryProject
p578
aI1
aa(lp579
Vclimatechange
p580
aI1
aa(lp581
Vheroes
p582
aI1
aa(lp583
VHuskers
p584
aI1
aa(lp585
VService
p586
aI1
aa(lp587
VNEheroes
p588
aI2
aa(lp589
VPatriotRiders
p590
aI1
aa(lp591
VProudNebraskan
p592
aI3
aa(lp593
Vfarming
p594
aI1
aa(lp595
VArcticRider
p596
aI1
aa(lp597
VDefendDACA
p598
aI1
aa(lp599
VNATO
p600
aI1
aa(lp601
VIoT
p602
aI1
aa(lp603
VNEstakeholders
p604
aI1
aa(lp605
VFeedTheWorld
p606
aI1
aa(lp607
VWithEachOtherForEachOther
p608
aI2
aa(lp609
VGirlPower
p610
aI2
aa(lp611
VPaidFamilyLeave
p612
aI1
aa(lp613
VVolleyball
p614
aI1
aa(lp615
VGBR
p616
aI1
aa(lp617
VIfItsSunday
p618
aI2
aa(lp619
VMTP
p620
aI2
aa(lp621
VNationalChamps
p622
aI1
aa(lp623
Vshepersisted
p624
aI1
aa(lp625
Vgunbuyback
p626
aI1
aa(lp627
VNewBritain
p628
aI3
aa(lp629
VLIHTC
p630
aI2
aa(lp631
Vaffordablehousing
p632
aI1
aa(lp633
VAI
p634
aI1
aa(lp635
Vgapol
p636
aI1
aa(lp637
Venergy
p638
aI1
aa(lp639
Vinternet
p640
aI1
aatRp641
.